target datalayout = "e-m:e-p270:32:32-p271:32:32-p272:64:64-i64:64-i128:128-f80:128-n8:16:32:64-S128"
target triple = "x86_64-pc-linux-gnu"

%struct.index_state = type { ptr, i32, i32, i32, i32, ptr, ptr, ptr, %struct.cache_time, i8, i32, %struct.hashmap, %struct.hashmap, %struct.object_id, ptr, ptr, ptr, ptr, ptr, ptr, ptr }
%struct.cache_time = type { i32, i32 }
%struct.hashmap = type { ptr, ptr, ptr, i32, i32, i32, i32, i8 }
%struct.object_id = type { [32 x i8], i32 }
%struct.cache_entry = type { %struct.hashmap_entry, %struct.stat_data, i32, i32, i32, i32, i32, %struct.object_id, [0 x i8] }
%struct.hashmap_entry = type { ptr, i32 }
%struct.stat_data = type { %struct.cache_time, %struct.cache_time, i32, i32, i32, i32, i32 }
%struct.split_index = type { %struct.object_id, ptr, ptr, ptr, ptr, i32, i32, i32, i32 }

@should_validate_cache_entries.validate_index_cache_entries = internal global i32 -1, align 4
@.str.45 = private unnamed_addr constant [38 x i8] c"GIT_TEST_VALIDATE_INDEX_CACHE_ENTRIES\00", align 1
@.str.57 = private unnamed_addr constant [27 x i8] c"size_t overflow: %lu * %lu\00", align 1

; Function Attrs: inlinehint nounwind uwtable
define internal i64 @st_mult(i64 noundef %0, i64 noundef %1) #3 {
  %3 = alloca i64, align 8
  %4 = alloca i64, align 8
  store i64 %0, ptr %3, align 8, !tbaa !31
  store i64 %1, ptr %4, align 8, !tbaa !31
  %5 = load i64, ptr %3, align 8, !tbaa !31
  %6 = icmp ne i64 %5, 0
  br i1 %6, label %7, label %15

7:                                                ; preds = %2
  %8 = load i64, ptr %4, align 8, !tbaa !31
  %9 = load i64, ptr %3, align 8, !tbaa !31
  %10 = udiv i64 -1, %9
  %11 = icmp ugt i64 %8, %10
  br i1 %11, label %12, label %15

12:                                               ; preds = %7
  %13 = load i64, ptr %3, align 8, !tbaa !31
  %14 = load i64, ptr %4, align 8, !tbaa !31
  call void (ptr, ...) @die(ptr noundef @.str.57, i64 noundef %13, i64 noundef %14) #14
  unreachable

15:                                               ; preds = %7, %2
  %16 = load i64, ptr %3, align 8, !tbaa !31
  %17 = load i64, ptr %4, align 8, !tbaa !31
  %18 = mul i64 %16, %17
  ret i64 %18
}

; Function Attrs: nounwind uwtable
define dso_local i32 @should_validate_cache_entries() #0 {
  %1 = load i32, ptr @should_validate_cache_entries.validate_index_cache_entries, align 4, !tbaa !9
  %2 = icmp slt i32 %1, 0
  br i1 %2, label %3, label %9

3:                                                ; preds = %0
  %4 = call ptr @getenv(ptr noundef @.str.45) #12
  %5 = icmp ne ptr %4, null
  br i1 %5, label %6, label %7

6:                                                ; preds = %3
  store i32 1, ptr @should_validate_cache_entries.validate_index_cache_entries, align 4, !tbaa !9
  br label %8

7:                                                ; preds = %3
  store i32 0, ptr @should_validate_cache_entries.validate_index_cache_entries, align 4, !tbaa !9
  br label %8

8:                                                ; preds = %7, %6
  br label %9

9:                                                ; preds = %8, %0
  %10 = load i32, ptr @should_validate_cache_entries.validate_index_cache_entries, align 4, !tbaa !9
  ret i32 %10
}

; Function Attrs: inlinehint nounwind uwtable
define internal void @move_array(ptr noundef %0, ptr noundef %1, i64 noundef %2, i64 noundef %3) #3 {
  %5 = alloca ptr, align 8
  %6 = alloca ptr, align 8
  %7 = alloca i64, align 8
  %8 = alloca i64, align 8
  store ptr %0, ptr %5, align 8, !tbaa !64
  store ptr %1, ptr %6, align 8, !tbaa !64
  store i64 %2, ptr %7, align 8, !tbaa !31
  store i64 %3, ptr %8, align 8, !tbaa !31
  %9 = load i64, ptr %7, align 8, !tbaa !31
  %10 = icmp ne i64 %9, 0
  br i1 %10, label %11, label %17

11:                                               ; preds = %4
  %12 = load ptr, ptr %5, align 8, !tbaa !64
  %13 = load ptr, ptr %6, align 8, !tbaa !64
  %14 = load i64, ptr %8, align 8, !tbaa !31
  %15 = load i64, ptr %7, align 8, !tbaa !31
  %16 = call i64 @st_mult(i64 noundef %14, i64 noundef %15)
  call void @llvm.memmove.p0.p0.i64(ptr align 1 %12, ptr align 1 %13, i64 %16, i1 false)
  br label %17

17:                                               ; preds = %11, %4
  ret void
}

; Function Attrs: inlinehint nounwind uwtable
define internal ptr @mem_pool__ce_calloc(ptr noundef %0, i64 noundef %1) #3 {
  %3 = alloca ptr, align 8
  %4 = alloca i64, align 8
  %5 = alloca ptr, align 8
  store ptr %0, ptr %3, align 8, !tbaa !76
  store i64 %1, ptr %4, align 8, !tbaa !31
  call void @llvm.lifetime.start.p0(i64 8, ptr %5) #12
  %6 = load ptr, ptr %3, align 8, !tbaa !76
  %7 = load i64, ptr %4, align 8, !tbaa !31
  %8 = add i64 108, %7
  %9 = add i64 %8, 1
  %10 = call ptr @mem_pool_calloc(ptr noundef %6, i64 noundef 1, i64 noundef %9)
  store ptr %10, ptr %5, align 8, !tbaa !29
  %11 = load ptr, ptr %5, align 8, !tbaa !29
  %12 = getelementptr inbounds nuw %struct.cache_entry, ptr %11, i32 0, i32 4
  store i32 1, ptr %12, align 4, !tbaa !9
  %13 = load ptr, ptr %5, align 8, !tbaa !29
  call void @llvm.lifetime.end.p0(i64 8, ptr %5) #12
  ret ptr %13
}

; Function Attrs: nounwind uwtable
define internal ptr @find_mem_pool(ptr noundef %0) #0 {
  %2 = alloca ptr, align 8
  %3 = alloca ptr, align 8
  store ptr %0, ptr %2, align 8, !tbaa !4
  call void @llvm.lifetime.start.p0(i64 8, ptr %3) #12
  %4 = load ptr, ptr %2, align 8, !tbaa !4
  %5 = getelementptr inbounds nuw %struct.index_state, ptr %4, i32 0, i32 7
  %6 = load ptr, ptr %5, align 8, !tbaa !77
  %7 = icmp ne ptr %6, null
  br i1 %7, label %8, label %22

8:                                                ; preds = %1
  %9 = load ptr, ptr %2, align 8, !tbaa !4
  %10 = getelementptr inbounds nuw %struct.index_state, ptr %9, i32 0, i32 7
  %11 = load ptr, ptr %10, align 8, !tbaa !77
  %12 = getelementptr inbounds nuw %struct.split_index, ptr %11, i32 0, i32 1
  %13 = load ptr, ptr %12, align 8, !tbaa !78
  %14 = icmp ne ptr %13, null
  br i1 %14, label %15, label %22

15:                                               ; preds = %8
  %16 = load ptr, ptr %2, align 8, !tbaa !4
  %17 = getelementptr inbounds nuw %struct.index_state, ptr %16, i32 0, i32 7
  %18 = load ptr, ptr %17, align 8, !tbaa !77
  %19 = getelementptr inbounds nuw %struct.split_index, ptr %18, i32 0, i32 1
  %20 = load ptr, ptr %19, align 8, !tbaa !78
  %21 = getelementptr inbounds nuw %struct.index_state, ptr %20, i32 0, i32 17
  store ptr %21, ptr %3, align 8, !tbaa !80
  br label %25

22:                                               ; preds = %8, %1
  %23 = load ptr, ptr %2, align 8, !tbaa !4
  %24 = getelementptr inbounds nuw %struct.index_state, ptr %23, i32 0, i32 17
  store ptr %24, ptr %3, align 8, !tbaa !80
  br label %25

25:                                               ; preds = %22, %15
  %26 = load ptr, ptr %3, align 8, !tbaa !80
  %27 = load ptr, ptr %26, align 8, !tbaa !76
  %28 = icmp ne ptr %27, null
  br i1 %28, label %34, label %29

29:                                               ; preds = %25
  %30 = call ptr @xmalloc(i64 noundef 24)
  %31 = load ptr, ptr %3, align 8, !tbaa !80
  store ptr %30, ptr %31, align 8, !tbaa !76
  %32 = load ptr, ptr %3, align 8, !tbaa !80
  %33 = load ptr, ptr %32, align 8, !tbaa !76
  call void @mem_pool_init(ptr noundef %33, i64 noundef 0)
  br label %34

34:                                               ; preds = %29, %25
  %35 = load ptr, ptr %3, align 8, !tbaa !80
  %36 = load ptr, ptr %35, align 8, !tbaa !76
  call void @llvm.lifetime.end.p0(i64 8, ptr %3) #12
  ret ptr %36
}

; Function Attrs: nounwind uwtable
define dso_local void @discard_cache_entry(ptr noundef %0) #0 {
  %2 = alloca ptr, align 8
  store ptr %0, ptr %2, align 8, !tbaa !29
  %3 = load ptr, ptr %2, align 8, !tbaa !29
  %4 = icmp ne ptr %3, null
  br i1 %4, label %5, label %16

5:                                                ; preds = %1
  %6 = call i32 @should_validate_cache_entries()
  %7 = icmp ne i32 %6, 0
  br i1 %7, label %8, label %16

8:                                                ; preds = %5
  %9 = load ptr, ptr %2, align 8, !tbaa !29
  %10 = load ptr, ptr %2, align 8, !tbaa !29
  %11 = getelementptr inbounds nuw %struct.cache_entry, ptr %10, i32 0, i32 5
  %12 = load i32, ptr %11, align 8, !tbaa !9
  %13 = zext i32 %12 to i64
  %14 = add i64 108, %13
  %15 = add i64 %14, 1
  call void @llvm.memset.p0.i64(ptr align 8 %9, i8 -51, i64 %15, i1 false)
  br label %16

16:                                               ; preds = %8, %5, %1
  %17 = load ptr, ptr %2, align 8, !tbaa !29
  %18 = icmp ne ptr %17, null
  br i1 %18, label %19, label %25

19:                                               ; preds = %16
  %20 = load ptr, ptr %2, align 8, !tbaa !29
  %21 = getelementptr inbounds nuw %struct.cache_entry, ptr %20, i32 0, i32 4
  %22 = load i32, ptr %21, align 4, !tbaa !9
  %23 = icmp ne i32 %22, 0
  br i1 %23, label %24, label %25

24:                                               ; preds = %19
  br label %27

25:                                               ; preds = %19, %16
  %26 = load ptr, ptr %2, align 8, !tbaa !29
  call void @free(ptr noundef %26) #12
  br label %27

27:                                               ; preds = %25, %24
  ret void
}

; Function Attrs: nounwind uwtable
define dso_local ptr @refresh_cache_entry(ptr noundef %0, ptr noundef %1, i32 noundef %2) #0 {
  %4 = alloca ptr, align 8
  %5 = alloca ptr, align 8
  %6 = alloca i32, align 4
  store ptr %0, ptr %4, align 8, !tbaa !4
  store ptr %1, ptr %5, align 8, !tbaa !29
  store i32 %2, ptr %6, align 4, !tbaa !9
  %7 = load ptr, ptr %4, align 8, !tbaa !4
  %8 = load ptr, ptr %5, align 8, !tbaa !29
  %9 = load i32, ptr %6, align 4, !tbaa !9
  %10 = call ptr @refresh_cache_ent(ptr noundef %7, ptr noundef %8, i32 noundef %9, ptr noundef null, ptr noundef null, ptr noundef null, ptr noundef null)
  ret ptr %10
}

; Function Attrs: nounwind uwtable
define dso_local i32 @remove_index_entry_at(ptr noundef %0, i32 noundef %1) #0 {
  %3 = alloca i32, align 4
  %4 = alloca ptr, align 8
  %5 = alloca i32, align 4
  %6 = alloca ptr, align 8
  %7 = alloca i32, align 4
  store ptr %0, ptr %4, align 8, !tbaa !4
  store i32 %1, ptr %5, align 4, !tbaa !9
  call void @llvm.lifetime.start.p0(i64 8, ptr %6) #12
  %8 = load ptr, ptr %4, align 8, !tbaa !4
  %9 = getelementptr inbounds nuw %struct.index_state, ptr %8, i32 0, i32 0
  %10 = load ptr, ptr %9, align 8, !tbaa !13
  %11 = load i32, ptr %5, align 4, !tbaa !9
  %12 = sext i32 %11 to i64
  %13 = getelementptr inbounds ptr, ptr %10, i64 %12
  %14 = load ptr, ptr %13, align 8, !tbaa !29
  store ptr %14, ptr %6, align 8, !tbaa !29
  %15 = load ptr, ptr %4, align 8, !tbaa !4
  %16 = load ptr, ptr %6, align 8, !tbaa !29
  call void @record_resolve_undo(ptr noundef %15, ptr noundef %16)
  %17 = load ptr, ptr %4, align 8, !tbaa !4
  %18 = load ptr, ptr %6, align 8, !tbaa !29
  call void @remove_name_hash(ptr noundef %17, ptr noundef %18)
  %19 = load ptr, ptr %4, align 8, !tbaa !4
  %20 = load ptr, ptr %6, align 8, !tbaa !29
  call void @save_or_free_index_entry(ptr noundef %19, ptr noundef %20)
  %21 = load ptr, ptr %4, align 8, !tbaa !4
  %22 = getelementptr inbounds nuw %struct.index_state, ptr %21, i32 0, i32 4
  %23 = load i32, ptr %22, align 4, !tbaa !33
  %24 = or i32 %23, 4
  store i32 %24, ptr %22, align 4, !tbaa !33
  %25 = load ptr, ptr %4, align 8, !tbaa !4
  %26 = getelementptr inbounds nuw %struct.index_state, ptr %25, i32 0, i32 2
  %27 = load i32, ptr %26, align 4, !tbaa !34
  %28 = add i32 %27, -1
  store i32 %28, ptr %26, align 4, !tbaa !34
  %29 = load i32, ptr %5, align 4, !tbaa !9
  %30 = load ptr, ptr %4, align 8, !tbaa !4
  %31 = getelementptr inbounds nuw %struct.index_state, ptr %30, i32 0, i32 2
  %32 = load i32, ptr %31, align 4, !tbaa !34
  %33 = icmp uge i32 %29, %32
  br i1 %33, label %34, label %35

34:                                               ; preds = %2
  store i32 0, ptr %3, align 4
  store i32 1, ptr %7, align 4
  br label %55

35:                                               ; preds = %2
  %36 = load ptr, ptr %4, align 8, !tbaa !4
  %37 = getelementptr inbounds nuw %struct.index_state, ptr %36, i32 0, i32 0
  %38 = load ptr, ptr %37, align 8, !tbaa !13
  %39 = load i32, ptr %5, align 4, !tbaa !9
  %40 = sext i32 %39 to i64
  %41 = getelementptr inbounds ptr, ptr %38, i64 %40
  %42 = load ptr, ptr %4, align 8, !tbaa !4
  %43 = getelementptr inbounds nuw %struct.index_state, ptr %42, i32 0, i32 0
  %44 = load ptr, ptr %43, align 8, !tbaa !13
  %45 = load i32, ptr %5, align 4, !tbaa !9
  %46 = sext i32 %45 to i64
  %47 = getelementptr inbounds ptr, ptr %44, i64 %46
  %48 = getelementptr inbounds ptr, ptr %47, i64 1
  %49 = load ptr, ptr %4, align 8, !tbaa !4
  %50 = getelementptr inbounds nuw %struct.index_state, ptr %49, i32 0, i32 2
  %51 = load i32, ptr %50, align 4, !tbaa !34
  %52 = load i32, ptr %5, align 4, !tbaa !9
  %53 = sub i32 %51, %52
  %54 = zext i32 %53 to i64
  call void @move_array(ptr noundef %41, ptr noundef %48, i64 noundef %54, i64 noundef 8)
  store i32 1, ptr %3, align 4
  store i32 1, ptr %7, align 4
  br label %55

55:                                               ; preds = %35, %34
  call void @llvm.lifetime.end.p0(i64 8, ptr %6) #12
  %56 = load i32, ptr %3, align 4
  ret i32 %56
}

; Function Attrs: inlinehint nounwind uwtable
define internal void @copy_cache_entry(ptr noundef %0, ptr noundef %1) #3 {
  %3 = alloca ptr, align 8
  %4 = alloca ptr, align 8
  %5 = alloca i32, align 4
  %6 = alloca i32, align 4
  store ptr %0, ptr %3, align 8, !tbaa !29
  store ptr %1, ptr %4, align 8, !tbaa !29
  call void @llvm.lifetime.start.p0(i64 4, ptr %5) #12
  %7 = load ptr, ptr %3, align 8, !tbaa !29
  %8 = getelementptr inbounds nuw %struct.cache_entry, ptr %7, i32 0, i32 3
  %9 = load i32, ptr %8, align 8, !tbaa !9
  %10 = and i32 %9, 1048576
  store i32 %10, ptr %5, align 4, !tbaa !9
  call void @llvm.lifetime.start.p0(i64 4, ptr %6) #12
  %11 = load ptr, ptr %3, align 8, !tbaa !29
  %12 = getelementptr inbounds nuw %struct.cache_entry, ptr %11, i32 0, i32 4
  %13 = load i32, ptr %12, align 4, !tbaa !9
  store i32 %13, ptr %6, align 4, !tbaa !9
  %14 = load ptr, ptr %3, align 8, !tbaa !29
  %15 = getelementptr inbounds nuw %struct.cache_entry, ptr %14, i32 0, i32 1
  %16 = load ptr, ptr %4, align 8, !tbaa !29
  %17 = getelementptr inbounds nuw %struct.cache_entry, ptr %16, i32 0, i32 1
  call void @llvm.memcpy.p0.p0.i64(ptr align 8 %15, ptr align 8 %17, i64 92, i1 false)
  %18 = load ptr, ptr %3, align 8, !tbaa !29
  %19 = getelementptr inbounds nuw %struct.cache_entry, ptr %18, i32 0, i32 3
  %20 = load i32, ptr %19, align 8, !tbaa !9
  %21 = and i32 %20, -1048577
  %22 = load i32, ptr %5, align 4, !tbaa !9
  %23 = or i32 %21, %22
  %24 = load ptr, ptr %3, align 8, !tbaa !29
  %25 = getelementptr inbounds nuw %struct.cache_entry, ptr %24, i32 0, i32 3
  store i32 %23, ptr %25, align 8, !tbaa !9
  %26 = load i32, ptr %6, align 4, !tbaa !9
  %27 = load ptr, ptr %3, align 8, !tbaa !29
  %28 = getelementptr inbounds nuw %struct.cache_entry, ptr %27, i32 0, i32 4
  store i32 %26, ptr %28, align 4, !tbaa !9
  call void @llvm.lifetime.end.p0(i64 4, ptr %6) #12
  call void @llvm.lifetime.end.p0(i64 4, ptr %5) #12
  ret void
}

; Function Attrs: nounwind uwtable
define dso_local ptr @make_empty_cache_entry(ptr noundef %0, i64 noundef %1) #0 {
  %3 = alloca ptr, align 8
  %4 = alloca i64, align 8
  store ptr %0, ptr %3, align 8, !tbaa !4
  store i64 %1, ptr %4, align 8, !tbaa !31
  %5 = load ptr, ptr %3, align 8, !tbaa !4
  %6 = call ptr @find_mem_pool(ptr noundef %5)
  %7 = load i64, ptr %4, align 8, !tbaa !31
  %8 = call ptr @mem_pool__ce_calloc(ptr noundef %6, i64 noundef %7)
  ret ptr %8
}

; Function Attrs: nounwind uwtable
define dso_local void @rename_index_entry_at(ptr noundef %0, i32 noundef %1, ptr noundef %2) #0 {
  %4 = alloca ptr, align 8
  %5 = alloca i32, align 4
  %6 = alloca ptr, align 8
  %7 = alloca ptr, align 8
  %8 = alloca ptr, align 8
  %9 = alloca ptr, align 8
  %10 = alloca i32, align 4
  store ptr %0, ptr %4, align 8, !tbaa !4
  store i32 %1, ptr %5, align 4, !tbaa !9
  store ptr %2, ptr %6, align 8, !tbaa !11
  call void @llvm.lifetime.start.p0(i64 8, ptr %7) #12
  %11 = load ptr, ptr %4, align 8, !tbaa !4
  %12 = getelementptr inbounds nuw %struct.index_state, ptr %11, i32 0, i32 0
  %13 = load ptr, ptr %12, align 8, !tbaa !13
  %14 = load i32, ptr %5, align 4, !tbaa !9
  %15 = sext i32 %14 to i64
  %16 = getelementptr inbounds ptr, ptr %13, i64 %15
  %17 = load ptr, ptr %16, align 8, !tbaa !29
  store ptr %17, ptr %7, align 8, !tbaa !29
  call void @llvm.lifetime.start.p0(i64 8, ptr %8) #12
  call void @llvm.lifetime.start.p0(i64 8, ptr %9) #12
  call void @llvm.lifetime.start.p0(i64 4, ptr %10) #12
  %18 = load ptr, ptr %6, align 8, !tbaa !11
  %19 = call i64 @strlen(ptr noundef %18) #13
  %20 = trunc i64 %19 to i32
  store i32 %20, ptr %10, align 4, !tbaa !9
  %21 = load ptr, ptr %4, align 8, !tbaa !4
  %22 = load i32, ptr %10, align 4, !tbaa !9
  %23 = sext i32 %22 to i64
  %24 = call ptr @make_empty_cache_entry(ptr noundef %21, i64 noundef %23)
  store ptr %24, ptr %8, align 8, !tbaa !29
  %25 = load ptr, ptr %8, align 8, !tbaa !29
  %26 = load ptr, ptr %7, align 8, !tbaa !29
  call void @copy_cache_entry(ptr noundef %25, ptr noundef %26)
  %27 = load ptr, ptr %8, align 8, !tbaa !29
  %28 = getelementptr inbounds nuw %struct.cache_entry, ptr %27, i32 0, i32 3
  %29 = load i32, ptr %28, align 8, !tbaa !9
  %30 = and i32 %29, -1048577
  store i32 %30, ptr %28, align 8, !tbaa !9
  %31 = load i32, ptr %10, align 4, !tbaa !9
  %32 = load ptr, ptr %8, align 8, !tbaa !29
  %33 = getelementptr inbounds nuw %struct.cache_entry, ptr %32, i32 0, i32 5
  store i32 %31, ptr %33, align 8, !tbaa !9
  %34 = load ptr, ptr %8, align 8, !tbaa !29
  %35 = getelementptr inbounds nuw %struct.cache_entry, ptr %34, i32 0, i32 6
  store i32 0, ptr %35, align 4, !tbaa !9
  %36 = load ptr, ptr %8, align 8, !tbaa !29
  %37 = getelementptr inbounds nuw %struct.cache_entry, ptr %36, i32 0, i32 8
  %38 = getelementptr inbounds [0 x i8], ptr %37, i64 0, i64 0
  %39 = load ptr, ptr %6, align 8, !tbaa !11
  %40 = load i32, ptr %10, align 4, !tbaa !9
  %41 = add nsw i32 %40, 1
  %42 = sext i32 %41 to i64
  call void @llvm.memcpy.p0.p0.i64(ptr align 4 %38, ptr align 1 %39, i64 %42, i1 false)
  %43 = load ptr, ptr %4, align 8, !tbaa !4
  %44 = load ptr, ptr %7, align 8, !tbaa !29
  %45 = getelementptr inbounds nuw %struct.cache_entry, ptr %44, i32 0, i32 8
  %46 = getelementptr inbounds [0 x i8], ptr %45, i64 0, i64 0
  call void @cache_tree_invalidate_path(ptr noundef %43, ptr noundef %46)
  %47 = load ptr, ptr %4, align 8, !tbaa !4
  %48 = load ptr, ptr %7, align 8, !tbaa !29
  %49 = getelementptr inbounds nuw %struct.cache_entry, ptr %48, i32 0, i32 8
  %50 = getelementptr inbounds [0 x i8], ptr %49, i64 0, i64 0
  call void @untracked_cache_remove_from_index(ptr noundef %47, ptr noundef %50)
  %51 = load ptr, ptr %4, align 8, !tbaa !4
  %52 = load i32, ptr %5, align 4, !tbaa !9
  %53 = call i32 @remove_index_entry_at(ptr noundef %51, i32 noundef %52)
  %54 = load ptr, ptr %4, align 8, !tbaa !4
  %55 = load ptr, ptr %8, align 8, !tbaa !29
  %56 = call ptr @refresh_cache_entry(ptr noundef %54, ptr noundef %55, i32 noundef 16)
  store ptr %56, ptr %9, align 8, !tbaa !29
  %57 = load ptr, ptr %9, align 8, !tbaa !29
  %58 = icmp ne ptr %57, null
  br i1 %58, label %59, label %68

59:                                               ; preds = %3
  %60 = load ptr, ptr %9, align 8, !tbaa !29
  %61 = load ptr, ptr %8, align 8, !tbaa !29
  %62 = icmp ne ptr %60, %61
  br i1 %62, label %63, label %68

63:                                               ; preds = %59
  %64 = load ptr, ptr %4, align 8, !tbaa !4
  %65 = load ptr, ptr %9, align 8, !tbaa !29
  %66 = call i32 @add_index_entry(ptr noundef %64, ptr noundef %65, i32 noundef 3)
  %67 = load ptr, ptr %8, align 8, !tbaa !29
  call void @discard_cache_entry(ptr noundef %67)
  br label %72

68:                                               ; preds = %59, %3
  %69 = load ptr, ptr %4, align 8, !tbaa !4
  %70 = load ptr, ptr %8, align 8, !tbaa !29
  %71 = call i32 @add_index_entry(ptr noundef %69, ptr noundef %70, i32 noundef 3)
  br label %72

72:                                               ; preds = %68, %63
  call void @llvm.lifetime.end.p0(i64 4, ptr %10) #12
  call void @llvm.lifetime.end.p0(i64 8, ptr %9) #12
  call void @llvm.lifetime.end.p0(i64 8, ptr %8) #12
  call void @llvm.lifetime.end.p0(i64 8, ptr %7) #12
  ret void
}