; Function Attrs: nounwind uwtable
define dso_local void @rename_index_entry_at(ptr noundef %0, i32 noundef %1, ptr noundef readonly captures(none) %2) local_unnamed_addr #0 {
  %4 = load ptr, ptr %0, align 8, !tbaa !4
  %5 = sext i32 %1 to i64
  %6 = getelementptr inbounds ptr, ptr %4, i64 %5
  %7 = load ptr, ptr %6, align 8, !tbaa !25
  %8 = tail call i64 @strlen(ptr noundef nonnull dereferenceable(1) %2) #29
  %9 = trunc i64 %8 to i32
  %sext = shl i64 %8, 32
  %10 = ashr exact i64 %sext, 32
  %11 = getelementptr inbounds nuw i8, ptr %0, i64 40
  %12 = load ptr, ptr %11, align 8, !tbaa !27
  %.not.i.i = icmp eq ptr %12, null
  br i1 %.not.i.i, label %16, label %13

13:                                               ; preds = %3
  %14 = getelementptr inbounds nuw i8, ptr %12, i64 40
  %15 = load ptr, ptr %14, align 8, !tbaa !28
  %.not10.i.i = icmp eq ptr %15, null
  br i1 %.not10.i.i, label %16, label %17

16:                                               ; preds = %13, %3
  br label %17

17:                                               ; preds = %16, %13
  %.pn.i.i = phi ptr [ %0, %16 ], [ %15, %13 ]
  %.0.i.i = getelementptr inbounds nuw i8, ptr %.pn.i.i, i64 224
  %18 = load ptr, ptr %.0.i.i, align 8, !tbaa !31
  %.not11.i.i = icmp eq ptr %18, null
  br i1 %.not11.i.i, label %19, label %make_empty_cache_entry.exit

19:                                               ; preds = %17
  %20 = tail call ptr @xmalloc(i64 noundef 24) #30
  store ptr %20, ptr %.0.i.i, align 8, !tbaa !31
  tail call void @mem_pool_init(ptr noundef %20, i64 noundef 0) #30
  %.pre.i.i = load ptr, ptr %.0.i.i, align 8, !tbaa !31
  br label %make_empty_cache_entry.exit

make_empty_cache_entry.exit:                      ; preds = %17, %19
  %21 = phi ptr [ %.pre.i.i, %19 ], [ %18, %17 ]
  %22 = add nsw i64 %10, 109
  %23 = tail call ptr @mem_pool_calloc(ptr noundef %21, i64 noundef 1, i64 noundef %22) #30
  %24 = getelementptr inbounds nuw i8, ptr %23, i64 60
  store i32 1, ptr %24, align 4, !tbaa !32
  %25 = getelementptr inbounds nuw i8, ptr %23, i64 56
  %26 = getelementptr inbounds nuw i8, ptr %23, i64 16
  %27 = getelementptr inbounds nuw i8, ptr %7, i64 16
  tail call void @llvm.memcpy.p0.p0.i64(ptr noundef nonnull align 8 dereferenceable(92) %26, ptr noundef nonnull readonly align 8 dereferenceable(92) %27, i64 92, i1 false)
  %28 = load i32, ptr %25, align 8, !tbaa !32
  %29 = and i32 %28, -1048577
  store i32 1, ptr %24, align 4, !tbaa !32
  store i32 %29, ptr %25, align 8, !tbaa !32
  %30 = getelementptr inbounds nuw i8, ptr %23, i64 64
  store i32 %9, ptr %30, align 8, !tbaa !32
  %31 = getelementptr inbounds nuw i8, ptr %23, i64 68
  store i32 0, ptr %31, align 4, !tbaa !32
  %32 = getelementptr inbounds nuw i8, ptr %23, i64 108
  %sext30 = add i64 %sext, 4294967296
  %33 = ashr exact i64 %sext30, 32
  tail call void @llvm.memcpy.p0.p0.i64(ptr nonnull align 4 %32, ptr nonnull align 1 %2, i64 %33, i1 false)
  %34 = getelementptr inbounds nuw i8, ptr %7, i64 108
  tail call void @cache_tree_invalidate_path(ptr noundef nonnull %0, ptr noundef nonnull %34) #30
  tail call void @untracked_cache_remove_from_index(ptr noundef nonnull %0, ptr noundef nonnull %34) #30
  %35 = load ptr, ptr %0, align 8, !tbaa !4
  %36 = getelementptr inbounds ptr, ptr %35, i64 %5
  %37 = load ptr, ptr %36, align 8, !tbaa !25
  tail call void @record_resolve_undo(ptr noundef nonnull %0, ptr noundef %37) #30
  tail call void @remove_name_hash(ptr noundef nonnull %0, ptr noundef %37) #30
  tail call void @save_or_free_index_entry(ptr noundef nonnull %0, ptr noundef %37) #30
  %38 = getelementptr inbounds nuw i8, ptr %0, i64 20
  %39 = load i32, ptr %38, align 4, !tbaa !33
  %40 = or i32 %39, 4
  store i32 %40, ptr %38, align 4, !tbaa !33
  %41 = getelementptr inbounds nuw i8, ptr %0, i64 12
  %42 = load i32, ptr %41, align 4, !tbaa !34
  %43 = add i32 %42, -1
  store i32 %43, ptr %41, align 4, !tbaa !34
  %.not.i = icmp ult i32 %1, %43
  br i1 %.not.i, label %44, label %remove_index_entry_at.exit

44:                                               ; preds = %make_empty_cache_entry.exit
  %45 = sub nuw i32 %43, %1
  %46 = zext i32 %45 to i64
  %47 = load ptr, ptr %0, align 8, !tbaa !4
  %48 = getelementptr inbounds ptr, ptr %47, i64 %5
  %49 = getelementptr inbounds nuw i8, ptr %48, i64 8
  %50 = shl nuw nsw i64 %46, 3
  tail call void @llvm.memmove.p0.p0.i64(ptr align 1 %48, ptr nonnull readonly align 1 %49, i64 %50, i1 false)
  br label %remove_index_entry_at.exit

remove_index_entry_at.exit:                       ; preds = %make_empty_cache_entry.exit, %44
  %51 = tail call fastcc noundef ptr @refresh_cache_ent(ptr noundef nonnull %0, ptr noundef nonnull %23, i32 noundef 16, ptr noundef null, ptr noundef null, ptr noundef null, ptr noundef null)
  %.not = icmp eq ptr %51, null
  %.not31 = icmp eq ptr %51, %23
  %or.cond = or i1 %.not, %.not31
  br i1 %or.cond, label %64, label %52

52:                                               ; preds = %remove_index_entry_at.exit
  %53 = tail call i32 @add_index_entry(ptr noundef nonnull %0, ptr noundef nonnull %51, i32 noundef 3)
  %54 = load i32, ptr @should_validate_cache_entries.validate_index_cache_entries, align 4, !tbaa !32
  %55 = icmp slt i32 %54, 0
  br i1 %55, label %.sink.split.i.i, label %should_validate_cache_entries.exit.i

.sink.split.i.i:                                  ; preds = %52
  %56 = tail call ptr @getenv(ptr noundef nonnull @.str.45) #30
  %.not.i.i33 = icmp ne ptr %56, null
  %..i.i = zext i1 %.not.i.i33 to i32
  store i32 %..i.i, ptr @should_validate_cache_entries.validate_index_cache_entries, align 4, !tbaa !32
  br label %should_validate_cache_entries.exit.i

should_validate_cache_entries.exit.i:             ; preds = %.sink.split.i.i, %52
  %57 = phi i32 [ %54, %52 ], [ %..i.i, %.sink.split.i.i ]
  %.not6.i = icmp eq i32 %57, 0
  br i1 %.not6.i, label %62, label %58

58:                                               ; preds = %should_validate_cache_entries.exit.i
  %59 = load i32, ptr %30, align 8, !tbaa !32
  %60 = zext i32 %59 to i64
  %61 = add nuw nsw i64 %60, 109
  tail call void @llvm.memset.p0.i64(ptr noundef nonnull align 8 dereferenceable(1) %23, i8 -51, i64 %61, i1 false)
  br label %62

62:                                               ; preds = %58, %should_validate_cache_entries.exit.i
  %63 = load i32, ptr %24, align 4, !tbaa !32
  %.not7.i = icmp eq i32 %63, 0
  br i1 %.not7.i, label %.critedge.i, label %discard_cache_entry.exit

.critedge.i:                                      ; preds = %62
  tail call void @free(ptr noundef nonnull %23) #30
  br label %discard_cache_entry.exit

64:                                               ; preds = %remove_index_entry_at.exit
  %65 = tail call i32 @add_index_entry(ptr noundef nonnull %0, ptr noundef nonnull %23, i32 noundef 3)
  br label %discard_cache_entry.exit

discard_cache_entry.exit:                         ; preds = %.critedge.i, %62, %64
  ret void
}